; Function Attrs: mustprogress uwtable
define hidden noundef nonnull align 8 dereferenceable(8) ptr @_ZNK6solver14display_dimacsERSob(ptr noundef nonnull align 8 dereferenceable(96) %0, ptr noundef nonnull align 8 dereferenceable(8) %1, i1 noundef zeroext %2) local_unnamed_addr #3 align 2 personality ptr @__gxx_personality_v0 {
  %4 = alloca %class.ref_vector, align 8
  call void @llvm.lifetime.start.p0(i64 16, ptr nonnull %4) #25
  %5 = load ptr, ptr %0, align 8, !tbaa !3
  %6 = getelementptr inbounds nuw i8, ptr %5, i64 72
  %7 = load ptr, ptr %6, align 8
  %8 = tail call noundef nonnull align 8 dereferenceable(976) ptr %7(ptr noundef nonnull align 8 dereferenceable(72) %0)
  %9 = ptrtoint ptr %8 to i64
  store i64 %9, ptr %4, align 8, !tbaa !6
  %10 = getelementptr inbounds nuw i8, ptr %4, i64 8
  store ptr null, ptr %10, align 8, !tbaa !10
  %11 = load ptr, ptr %0, align 8, !tbaa !3
  %12 = getelementptr inbounds nuw i8, ptr %11, i64 232
  %13 = load ptr, ptr %12, align 8
  %14 = invoke noundef i32 %13(ptr noundef nonnull align 8 dereferenceable(96) %0)
          to label %.noexc unwind label %.loopexit.split-lp

.noexc:                                           ; preds = %3
  %.not.i = icmp eq i32 %14, 0
  br i1 %.not.i, label %_ZNK6solver14get_assertionsER10ref_vectorI4expr11ast_managerE.exit, label %.lr.ph.i

.lr.ph.i:                                         ; preds = %.noexc, %_ZN15ref_vector_coreI4expr19ref_manager_wrapperIS0_11ast_managerEE9push_backEPS0_.exit.i
  %.05.i = phi i32 [ %38, %_ZN15ref_vector_coreI4expr19ref_manager_wrapperIS0_11ast_managerEE9push_backEPS0_.exit.i ], [ 0, %.noexc ]
  %15 = load ptr, ptr %0, align 8, !tbaa !3
  %16 = getelementptr inbounds nuw i8, ptr %15, i64 240
  %17 = load ptr, ptr %16, align 8
  %18 = invoke noundef ptr %17(ptr noundef nonnull align 8 dereferenceable(96) %0, i32 noundef %.05.i)
          to label %.noexc4 unwind label %.loopexit

.noexc4:                                          ; preds = %.lr.ph.i
  %.not.i.i.i.i.i = icmp eq ptr %18, null
  br i1 %.not.i.i.i.i.i, label %_ZN15ref_vector_coreI4expr19ref_manager_wrapperIS0_11ast_managerEE7inc_refEPS0_.exit.i.i, label %19

19:                                               ; preds = %.noexc4
  %20 = getelementptr inbounds nuw i8, ptr %18, i64 8
  %21 = load i32, ptr %20, align 4, !tbaa !14
  %22 = add i32 %21, 1
  store i32 %22, ptr %20, align 4, !tbaa !14
  br label %_ZN15ref_vector_coreI4expr19ref_manager_wrapperIS0_11ast_managerEE7inc_refEPS0_.exit.i.i

_ZN15ref_vector_coreI4expr19ref_manager_wrapperIS0_11ast_managerEE7inc_refEPS0_.exit.i.i: ; preds = %19, %.noexc4
  %23 = load ptr, ptr %10, align 8, !tbaa !10
  %24 = icmp eq ptr %23, null
  br i1 %24, label %31, label %25

25:                                               ; preds = %_ZN15ref_vector_coreI4expr19ref_manager_wrapperIS0_11ast_managerEE7inc_refEPS0_.exit.i.i
  %26 = getelementptr inbounds i8, ptr %23, i64 -4
  %27 = load i32, ptr %26, align 4, !tbaa !17
  %28 = getelementptr inbounds i8, ptr %23, i64 -8
  %29 = load i32, ptr %28, align 4, !tbaa !17
  %30 = icmp eq i32 %27, %29
  br i1 %30, label %31, label %_ZN15ref_vector_coreI4expr19ref_manager_wrapperIS0_11ast_managerEE9push_backEPS0_.exit.i

31:                                               ; preds = %25, %_ZN15ref_vector_coreI4expr19ref_manager_wrapperIS0_11ast_managerEE7inc_refEPS0_.exit.i.i
  invoke void @_ZN6vectorIP4exprLb0EjE13expand_vectorEv(ptr noundef nonnull align 8 dereferenceable(8) %10)
          to label %.noexc5 unwind label %.loopexit

.noexc5:                                          ; preds = %31
  %.pre.i.i.i = load ptr, ptr %10, align 8, !tbaa !10
  %.phi.trans.insert.i.i.i = getelementptr inbounds i8, ptr %.pre.i.i.i, i64 -4
  %.pre2.i.i.i = load i32, ptr %.phi.trans.insert.i.i.i, align 4, !tbaa !17
  br label %_ZN15ref_vector_coreI4expr19ref_manager_wrapperIS0_11ast_managerEE9push_backEPS0_.exit.i

_ZN15ref_vector_coreI4expr19ref_manager_wrapperIS0_11ast_managerEE9push_backEPS0_.exit.i: ; preds = %.noexc5, %25
  %32 = phi i32 [ %.pre2.i.i.i, %.noexc5 ], [ %27, %25 ]
  %33 = phi ptr [ %.pre.i.i.i, %.noexc5 ], [ %23, %25 ]
  %34 = getelementptr inbounds i8, ptr %33, i64 -4
  %35 = zext i32 %32 to i64
  %36 = getelementptr inbounds nuw ptr, ptr %33, i64 %35
  store ptr %18, ptr %36, align 8, !tbaa !18
  %37 = add i32 %32, 1
  store i32 %37, ptr %34, align 4, !tbaa !17
  %38 = add nuw i32 %.05.i, 1
  %exitcond.not.i = icmp eq i32 %38, %14
  br i1 %exitcond.not.i, label %_ZNK6solver14get_assertionsER10ref_vectorI4expr11ast_managerE.exit, label %.lr.ph.i, !llvm.loop !20

_ZNK6solver14get_assertionsER10ref_vectorI4expr11ast_managerE.exit: ; preds = %_ZN15ref_vector_coreI4expr19ref_manager_wrapperIS0_11ast_managerEE9push_backEPS0_.exit.i, %.noexc
  %39 = invoke noundef nonnull align 8 dereferenceable(8) ptr @_Z14display_dimacsRSoRK10ref_vectorI4expr11ast_managerEb(ptr noundef nonnull align 8 dereferenceable(8) %1, ptr noundef nonnull align 8 dereferenceable(16) %4, i1 noundef zeroext %2)
          to label %40 unwind label %.loopexit.split-lp

40:                                               ; preds = %_ZNK6solver14get_assertionsER10ref_vectorI4expr11ast_managerE.exit
  %41 = load ptr, ptr %10, align 8, !tbaa !10
  %42 = icmp eq ptr %41, null
  br i1 %42, label %_ZN15ref_vector_coreI4expr19ref_manager_wrapperIS0_11ast_managerEED2Ev.exit, label %_ZNK6vectorIP4exprLb0EjE4sizeEv.exit.i

_ZNK6vectorIP4exprLb0EjE4sizeEv.exit.i:           ; preds = %40
  %43 = getelementptr inbounds i8, ptr %41, i64 -4
  %44 = load i32, ptr %43, align 4, !tbaa !17
  %45 = zext i32 %44 to i64
  %46 = getelementptr inbounds nuw ptr, ptr %41, i64 %45
  %.not.i6 = icmp eq i32 %44, 0
  br i1 %.not.i6, label %_ZN15ref_vector_coreI4expr19ref_manager_wrapperIS0_11ast_managerEE13dec_range_refEPKPS0_S7_.exit.thread4.i, label %.lr.ph.i.i

.lr.ph.i.i:                                       ; preds = %_ZNK6vectorIP4exprLb0EjE4sizeEv.exit.i, %_ZN15ref_vector_coreI4expr19ref_manager_wrapperIS0_11ast_managerEE7dec_refEPS0_.exit.i.i
  %.06.i.i = phi ptr [ %55, %_ZN15ref_vector_coreI4expr19ref_manager_wrapperIS0_11ast_managerEE7dec_refEPS0_.exit.i.i ], [ %41, %_ZNK6vectorIP4exprLb0EjE4sizeEv.exit.i ]
  %47 = load ptr, ptr %.06.i.i, align 8, !tbaa !18
  %48 = load ptr, ptr %4, align 8, !tbaa !27
  %.not.i.i.i.i.i7 = icmp eq ptr %47, null
  br i1 %.not.i.i.i.i.i7, label %_ZN15ref_vector_coreI4expr19ref_manager_wrapperIS0_11ast_managerEE7dec_refEPS0_.exit.i.i, label %49

49:                                               ; preds = %.lr.ph.i.i
  %50 = getelementptr inbounds nuw i8, ptr %47, i64 8
  %51 = load i32, ptr %50, align 4, !tbaa !14
  %52 = add i32 %51, -1
  store i32 %52, ptr %50, align 4, !tbaa !14
  %53 = icmp eq i32 %52, 0
  br i1 %53, label %54, label %_ZN15ref_vector_coreI4expr19ref_manager_wrapperIS0_11ast_managerEE7dec_refEPS0_.exit.i.i

54:                                               ; preds = %49
  invoke void @_ZN11ast_manager11delete_nodeEP3ast(ptr noundef nonnull align 8 dereferenceable(976) %48, ptr noundef nonnull %47)
          to label %_ZN15ref_vector_coreI4expr19ref_manager_wrapperIS0_11ast_managerEE7dec_refEPS0_.exit.i.i unwind label %62

_ZN15ref_vector_coreI4expr19ref_manager_wrapperIS0_11ast_managerEE7dec_refEPS0_.exit.i.i: ; preds = %54, %49, %.lr.ph.i.i
  %55 = getelementptr inbounds nuw i8, ptr %.06.i.i, i64 8
  %56 = icmp ult ptr %55, %46
  br i1 %56, label %.lr.ph.i.i, label %_ZN15ref_vector_coreI4expr19ref_manager_wrapperIS0_11ast_managerEE13dec_range_refEPKPS0_S7_.exit.i, !llvm.loop !29

_ZN15ref_vector_coreI4expr19ref_manager_wrapperIS0_11ast_managerEE13dec_range_refEPKPS0_S7_.exit.i: ; preds = %_ZN15ref_vector_coreI4expr19ref_manager_wrapperIS0_11ast_managerEE7dec_refEPS0_.exit.i.i
  %.pre.i = load ptr, ptr %10, align 8, !tbaa !10
  %.not.i.i.i = icmp eq ptr %.pre.i, null
  br i1 %.not.i.i.i, label %_ZN15ref_vector_coreI4expr19ref_manager_wrapperIS0_11ast_managerEED2Ev.exit, label %_ZN15ref_vector_coreI4expr19ref_manager_wrapperIS0_11ast_managerEE13dec_range_refEPKPS0_S7_.exit.thread4.i

_ZN15ref_vector_coreI4expr19ref_manager_wrapperIS0_11ast_managerEE13dec_range_refEPKPS0_S7_.exit.thread4.i: ; preds = %_ZN15ref_vector_coreI4expr19ref_manager_wrapperIS0_11ast_managerEE13dec_range_refEPKPS0_S7_.exit.i, %_ZNK6vectorIP4exprLb0EjE4sizeEv.exit.i
  %57 = phi ptr [ %.pre.i, %_ZN15ref_vector_coreI4expr19ref_manager_wrapperIS0_11ast_managerEE13dec_range_refEPKPS0_S7_.exit.i ], [ %41, %_ZNK6vectorIP4exprLb0EjE4sizeEv.exit.i ]
  %58 = getelementptr inbounds i8, ptr %57, i64 -8
  invoke void @_ZN6memory10deallocateEPv(ptr noundef nonnull %58)
          to label %_ZN15ref_vector_coreI4expr19ref_manager_wrapperIS0_11ast_managerEED2Ev.exit unwind label %59

59:                                               ; preds = %_ZN15ref_vector_coreI4expr19ref_manager_wrapperIS0_11ast_managerEE13dec_range_refEPKPS0_S7_.exit.thread4.i
  %60 = landingpad { ptr, i32 }
          catch ptr null
  %61 = extractvalue { ptr, i32 } %60, 0
  call void @__clang_call_terminate(ptr %61) #26
  unreachable

62:                                               ; preds = %54
  %63 = landingpad { ptr, i32 }
          catch ptr null
  %64 = extractvalue { ptr, i32 } %63, 0
  call void @__clang_call_terminate(ptr %64) #26
  unreachable

_ZN15ref_vector_coreI4expr19ref_manager_wrapperIS0_11ast_managerEED2Ev.exit: ; preds = %40, %_ZN15ref_vector_coreI4expr19ref_manager_wrapperIS0_11ast_managerEE13dec_range_refEPKPS0_S7_.exit.i, %_ZN15ref_vector_coreI4expr19ref_manager_wrapperIS0_11ast_managerEE13dec_range_refEPKPS0_S7_.exit.thread4.i
  call void @llvm.lifetime.end.p0(i64 16, ptr nonnull %4) #25
  ret ptr %39

.loopexit:                                        ; preds = %.lr.ph.i, %31
  %lpad.loopexit = landingpad { ptr, i32 }
          cleanup
  br label %65

.loopexit.split-lp:                               ; preds = %_ZNK6solver14get_assertionsER10ref_vectorI4expr11ast_managerE.exit, %3
  %lpad.loopexit.split-lp = landingpad { ptr, i32 }
          cleanup
  br label %65

65:                                               ; preds = %.loopexit.split-lp, %.loopexit
  %lpad.phi = phi { ptr, i32 } [ %lpad.loopexit, %.loopexit ], [ %lpad.loopexit.split-lp, %.loopexit.split-lp ]
  call void @_ZN15ref_vector_coreI4expr19ref_manager_wrapperIS0_11ast_managerEED2Ev(ptr noundef nonnull align 8 dereferenceable(16) %4) #25
  call void @llvm.lifetime.end.p0(i64 16, ptr nonnull %4) #25
  resume { ptr, i32 } %lpad.phi
}